target datalayout = "e-m:e-p270:32:32-p271:32:32-p272:64:64-i64:64-i128:128-f80:128-n8:16:32:64-S128"
target triple = "x86_64-pc-linux-gnu"

%struct.OSSL_HPKE_SUITE = type { i16, i16, i16 }

@testctx = internal global ptr null, align 8
@.str.31 = private unnamed_addr constant [28 x i8] c"../openssl/test/hpke_test.c\00", align 1
@.str.69 = private unnamed_addr constant [75 x i8] c"OSSL_HPKE_keygen(hpke_suite, pub, &publen, &privp, NULL, 0, testctx, NULL)\00", align 1
@.str.70 = private unnamed_addr constant [85 x i8] c"ctx = OSSL_HPKE_CTX_new(hpke_mode, hpke_suite, OSSL_HPKE_ROLE_SENDER, testctx, NULL)\00", align 1
@.str.73 = private unnamed_addr constant [57 x i8] c"OSSL_HPKE_encap(ctx, enc, &enclen, pub, publen, NULL, 0)\00", align 1
@.str.74 = private unnamed_addr constant [66 x i8] c"OSSL_HPKE_seal(ctx, cipher, &cipherlen, NULL, 0, plain, plainlen)\00", align 1
@.str.78 = private unnamed_addr constant [88 x i8] c"rctx = OSSL_HPKE_CTX_new(hpke_mode, hpke_suite, OSSL_HPKE_ROLE_RECEIVER, testctx, NULL)\00", align 1
@.str.79 = private unnamed_addr constant [51 x i8] c"OSSL_HPKE_decap(rctx, enc, enclen, privp, NULL, 0)\00", align 1
@.str.80 = private unnamed_addr constant [67 x i8] c"OSSL_HPKE_open(rctx, clear, &clearlen, NULL, 0, cipher, cipherlen)\00", align 1
@.str.234 = private unnamed_addr constant [31 x i8] c"OSSL_HPKE_CTX_set_seq(rctx, 0)\00", align 1
@__const.test_hpke_noncereuse.hpke_suite = private unnamed_addr constant %struct.OSSL_HPKE_SUITE { i16 32, i16 1, i16 1 }, align 2
@__const.test_hpke_noncereuse.plain = private unnamed_addr constant [16 x i8] c"quick brown fox\00", align 16
@.str.240 = private unnamed_addr constant [32 x i8] c"OSSL_HPKE_CTX_set_seq(ctx, seq)\00", align 1
@.str.241 = private unnamed_addr constant [36 x i8] c"OSSL_HPKE_CTX_set_seq(ctx, seq + 1)\00", align 1
@.str.242 = private unnamed_addr constant [33 x i8] c"OSSL_HPKE_CTX_set_seq(rctx, seq)\00", align 1

; Function Attrs: nounwind uwtable
define internal i32 @test_hpke_noncereuse() #0 {
  %1 = alloca i32, align 4
  %2 = alloca ptr, align 8
  %3 = alloca [512 x i8], align 16
  %4 = alloca i64, align 8
  %5 = alloca i32, align 4
  %6 = alloca %struct.OSSL_HPKE_SUITE, align 2
  %7 = alloca ptr, align 8
  %8 = alloca ptr, align 8
  %9 = alloca [16 x i8], align 16
  %10 = alloca i64, align 8
  %11 = alloca [512 x i8], align 16
  %12 = alloca i64, align 8
  %13 = alloca [512 x i8], align 16
  %14 = alloca i64, align 8
  %15 = alloca [512 x i8], align 16
  %16 = alloca i64, align 8
  %17 = alloca i64, align 8
  %18 = alloca i48, align 8
  %19 = alloca i48, align 8
  %20 = alloca i48, align 8
  call void @llvm.lifetime.start.p0(i64 4, ptr %1) #7
  store i32 0, ptr %1, align 4, !tbaa !4
  call void @llvm.lifetime.start.p0(i64 8, ptr %2) #7
  store ptr null, ptr %2, align 8, !tbaa !10
  call void @llvm.lifetime.start.p0(i64 512, ptr %3) #7
  call void @llvm.lifetime.start.p0(i64 8, ptr %4) #7
  store i64 512, ptr %4, align 8, !tbaa !13
  call void @llvm.lifetime.start.p0(i64 4, ptr %5) #7
  store i32 0, ptr %5, align 4, !tbaa !4
  call void @llvm.lifetime.start.p0(i64 6, ptr %6) #7
  call void @llvm.memcpy.p0.p0.i64(ptr align 2 %6, ptr align 2 @__const.test_hpke_noncereuse.hpke_suite, i64 6, i1 false)
  call void @llvm.lifetime.start.p0(i64 8, ptr %7) #7
  store ptr null, ptr %7, align 8, !tbaa !15
  call void @llvm.lifetime.start.p0(i64 8, ptr %8) #7
  store ptr null, ptr %8, align 8, !tbaa !15
  call void @llvm.lifetime.start.p0(i64 16, ptr %9) #7
  call void @llvm.memcpy.p0.p0.i64(ptr align 16 %9, ptr align 16 @__const.test_hpke_noncereuse.plain, i64 16, i1 false)
  call void @llvm.lifetime.start.p0(i64 8, ptr %10) #7
  store i64 16, ptr %10, align 8, !tbaa !13
  call void @llvm.lifetime.start.p0(i64 512, ptr %11) #7
  call void @llvm.lifetime.start.p0(i64 8, ptr %12) #7
  store i64 512, ptr %12, align 8, !tbaa !13
  call void @llvm.lifetime.start.p0(i64 512, ptr %13) #7
  call void @llvm.lifetime.start.p0(i64 8, ptr %14) #7
  store i64 512, ptr %14, align 8, !tbaa !13
  call void @llvm.lifetime.start.p0(i64 512, ptr %15) #7
  call void @llvm.lifetime.start.p0(i64 8, ptr %16) #7
  store i64 512, ptr %16, align 8, !tbaa !13
  call void @llvm.lifetime.start.p0(i64 8, ptr %17) #7
  store i64 195894762, ptr %17, align 8, !tbaa !13
  %21 = getelementptr inbounds [512 x i8], ptr %3, i64 0, i64 0
  %22 = load ptr, ptr @testctx, align 8, !tbaa !19
  call void @llvm.memcpy.p0.p0.i64(ptr align 8 %18, ptr align 2 %6, i64 6, i1 false)
  %23 = load i48, ptr %18, align 8
  %24 = call i32 @OSSL_HPKE_keygen(i48 %23, ptr noundef %21, ptr noundef %4, ptr noundef %2, ptr noundef null, i64 noundef 0, ptr noundef %22, ptr noundef null)
  %25 = icmp ne i32 %24, 0
  %26 = zext i1 %25 to i32
  %27 = call i32 @test_true(ptr noundef @.str.31, i32 noundef 1897, ptr noundef @.str.69, i32 noundef %26)
  %28 = icmp ne i32 %27, 0
  br i1 %28, label %30, label %29

29:                                               ; preds = %0
  br label %147

30:                                               ; preds = %0
  %31 = load i32, ptr %5, align 4, !tbaa !4
  %32 = load ptr, ptr @testctx, align 8, !tbaa !19
  call void @llvm.memcpy.p0.p0.i64(ptr align 8 %19, ptr align 2 %6, i64 6, i1 false)
  %33 = load i48, ptr %19, align 8
  %34 = call ptr @OSSL_HPKE_CTX_new(i32 noundef %31, i48 %33, i32 noundef 0, ptr noundef %32, ptr noundef null)
  store ptr %34, ptr %7, align 8, !tbaa !15
  %35 = call i32 @test_ptr(ptr noundef @.str.31, i32 noundef 1901, ptr noundef @.str.70, ptr noundef %34)
  %36 = icmp ne i32 %35, 0
  br i1 %36, label %38, label %37

37:                                               ; preds = %30
  br label %147

38:                                               ; preds = %30
  %39 = load ptr, ptr %7, align 8, !tbaa !15
  %40 = load i64, ptr %17, align 8, !tbaa !13
  %41 = call i32 @OSSL_HPKE_CTX_set_seq(ptr noundef %39, i64 noundef %40)
  %42 = icmp ne i32 %41, 0
  %43 = zext i1 %42 to i32
  %44 = call i32 @test_false(ptr noundef @.str.31, i32 noundef 1904, ptr noundef @.str.240, i32 noundef %43)
  %45 = icmp ne i32 %44, 0
  br i1 %45, label %47, label %46

46:                                               ; preds = %38
  br label %147

47:                                               ; preds = %38
  %48 = load ptr, ptr %7, align 8, !tbaa !15
  %49 = getelementptr inbounds [512 x i8], ptr %11, i64 0, i64 0
  %50 = getelementptr inbounds [512 x i8], ptr %3, i64 0, i64 0
  %51 = load i64, ptr %4, align 8, !tbaa !13
  %52 = call i32 @OSSL_HPKE_encap(ptr noundef %48, ptr noundef %49, ptr noundef %12, ptr noundef %50, i64 noundef %51, ptr noundef null, i64 noundef 0)
  %53 = icmp ne i32 %52, 0
  %54 = zext i1 %53 to i32
  %55 = call i32 @test_true(ptr noundef @.str.31, i32 noundef 1906, ptr noundef @.str.73, i32 noundef %54)
  %56 = icmp ne i32 %55, 0
  br i1 %56, label %58, label %57

57:                                               ; preds = %47
  br label %147

58:                                               ; preds = %47
  %59 = load ptr, ptr %7, align 8, !tbaa !15
  %60 = load i64, ptr %17, align 8, !tbaa !13
  %61 = add i64 %60, 1
  %62 = call i32 @OSSL_HPKE_CTX_set_seq(ptr noundef %59, i64 noundef %61)
  %63 = icmp ne i32 %62, 0
  %64 = zext i1 %63 to i32
  %65 = call i32 @test_false(ptr noundef @.str.31, i32 noundef 1909, ptr noundef @.str.241, i32 noundef %64)
  %66 = icmp ne i32 %65, 0
  br i1 %66, label %68, label %67

67:                                               ; preds = %58
  br label %147

68:                                               ; preds = %58
  %69 = load ptr, ptr %7, align 8, !tbaa !15
  %70 = getelementptr inbounds [512 x i8], ptr %13, i64 0, i64 0
  %71 = getelementptr inbounds [16 x i8], ptr %9, i64 0, i64 0
  %72 = load i64, ptr %10, align 8, !tbaa !13
  %73 = call i32 @OSSL_HPKE_seal(ptr noundef %69, ptr noundef %70, ptr noundef %14, ptr noundef null, i64 noundef 0, ptr noundef %71, i64 noundef %72)
  %74 = icmp ne i32 %73, 0
  %75 = zext i1 %74 to i32
  %76 = call i32 @test_true(ptr noundef @.str.31, i32 noundef 1912, ptr noundef @.str.74, i32 noundef %75)
  %77 = icmp ne i32 %76, 0
  br i1 %77, label %79, label %78

78:                                               ; preds = %68
  br label %147

79:                                               ; preds = %68
  %80 = load i32, ptr %5, align 4, !tbaa !4
  %81 = load ptr, ptr @testctx, align 8, !tbaa !19
  call void @llvm.memcpy.p0.p0.i64(ptr align 8 %20, ptr align 2 %6, i64 6, i1 false)
  %82 = load i48, ptr %20, align 8
  %83 = call ptr @OSSL_HPKE_CTX_new(i32 noundef %80, i48 %82, i32 noundef 1, ptr noundef %81, ptr noundef null)
  store ptr %83, ptr %8, align 8, !tbaa !15
  %84 = call i32 @test_ptr(ptr noundef @.str.31, i32 noundef 1918, ptr noundef @.str.78, ptr noundef %83)
  %85 = icmp ne i32 %84, 0
  br i1 %85, label %87, label %86

86:                                               ; preds = %79
  br label %147

87:                                               ; preds = %79
  %88 = load ptr, ptr %8, align 8, !tbaa !15
  %89 = load i64, ptr %17, align 8, !tbaa !13
  %90 = call i32 @OSSL_HPKE_CTX_set_seq(ptr noundef %88, i64 noundef %89)
  %91 = icmp ne i32 %90, 0
  %92 = zext i1 %91 to i32
  %93 = call i32 @test_true(ptr noundef @.str.31, i32 noundef 1921, ptr noundef @.str.242, i32 noundef %92)
  %94 = icmp ne i32 %93, 0
  br i1 %94, label %96, label %95

95:                                               ; preds = %87
  br label %147

96:                                               ; preds = %87
  %97 = load ptr, ptr %8, align 8, !tbaa !15
  %98 = getelementptr inbounds [512 x i8], ptr %11, i64 0, i64 0
  %99 = load i64, ptr %12, align 8, !tbaa !13
  %100 = load ptr, ptr %2, align 8, !tbaa !10
  %101 = call i32 @OSSL_HPKE_decap(ptr noundef %97, ptr noundef %98, i64 noundef %99, ptr noundef %100, ptr noundef null, i64 noundef 0)
  %102 = icmp ne i32 %101, 0
  %103 = zext i1 %102 to i32
  %104 = call i32 @test_true(ptr noundef @.str.31, i32 noundef 1923, ptr noundef @.str.79, i32 noundef %103)
  %105 = icmp ne i32 %104, 0
  br i1 %105, label %107, label %106

106:                                              ; preds = %96
  br label %147

107:                                              ; preds = %96
  %108 = load ptr, ptr %8, align 8, !tbaa !15
  %109 = load i64, ptr %17, align 8, !tbaa !13
  %110 = call i32 @OSSL_HPKE_CTX_set_seq(ptr noundef %108, i64 noundef %109)
  %111 = icmp ne i32 %110, 0
  %112 = zext i1 %111 to i32
  %113 = call i32 @test_true(ptr noundef @.str.31, i32 noundef 1926, ptr noundef @.str.242, i32 noundef %112)
  %114 = icmp ne i32 %113, 0
  br i1 %114, label %116, label %115

115:                                              ; preds = %107
  br label %147

116:                                              ; preds = %107
  %117 = load ptr, ptr %8, align 8, !tbaa !15
  %118 = getelementptr inbounds [512 x i8], ptr %15, i64 0, i64 0
  %119 = getelementptr inbounds [512 x i8], ptr %13, i64 0, i64 0
  %120 = load i64, ptr %14, align 8, !tbaa !13
  %121 = call i32 @OSSL_HPKE_open(ptr noundef %117, ptr noundef %118, ptr noundef %16, ptr noundef null, i64 noundef 0, ptr noundef %119, i64 noundef %120)
  %122 = icmp ne i32 %121, 0
  %123 = zext i1 %122 to i32
  %124 = call i32 @test_false(ptr noundef @.str.31, i32 noundef 1930, ptr noundef @.str.80, i32 noundef %123)
  %125 = icmp ne i32 %124, 0
  br i1 %125, label %127, label %126

126:                                              ; preds = %116
  br label %147

127:                                              ; preds = %116
  %128 = load ptr, ptr %8, align 8, !tbaa !15
  %129 = call i32 @OSSL_HPKE_CTX_set_seq(ptr noundef %128, i64 noundef 0)
  %130 = icmp ne i32 %129, 0
  %131 = zext i1 %130 to i32
  %132 = call i32 @test_true(ptr noundef @.str.31, i32 noundef 1933, ptr noundef @.str.234, i32 noundef %131)
  %133 = icmp ne i32 %132, 0
  br i1 %133, label %135, label %134

134:                                              ; preds = %127
  br label %147

135:                                              ; preds = %127
  %136 = load ptr, ptr %8, align 8, !tbaa !15
  %137 = getelementptr inbounds [512 x i8], ptr %15, i64 0, i64 0
  %138 = getelementptr inbounds [512 x i8], ptr %13, i64 0, i64 0
  %139 = load i64, ptr %14, align 8, !tbaa !13
  %140 = call i32 @OSSL_HPKE_open(ptr noundef %136, ptr noundef %137, ptr noundef %16, ptr noundef null, i64 noundef 0, ptr noundef %138, i64 noundef %139)
  %141 = icmp ne i32 %140, 0
  %142 = zext i1 %141 to i32
  %143 = call i32 @test_true(ptr noundef @.str.31, i32 noundef 1936, ptr noundef @.str.80, i32 noundef %142)
  %144 = icmp ne i32 %143, 0
  br i1 %144, label %146, label %145

145:                                              ; preds = %135
  br label %147

146:                                              ; preds = %135
  store i32 1, ptr %1, align 4, !tbaa !4
  br label %147

147:                                              ; preds = %146, %145, %134, %126, %115, %106, %95, %86, %78, %67, %57, %46, %37, %29
  %148 = load ptr, ptr %2, align 8, !tbaa !10
  call void @EVP_PKEY_free(ptr noundef %148)
  %149 = load ptr, ptr %7, align 8, !tbaa !15
  call void @OSSL_HPKE_CTX_free(ptr noundef %149)
  %150 = load ptr, ptr %8, align 8, !tbaa !15
  call void @OSSL_HPKE_CTX_free(ptr noundef %150)
  %151 = load i32, ptr %1, align 4, !tbaa !4
  call void @llvm.lifetime.end.p0(i64 8, ptr %17) #7
  call void @llvm.lifetime.end.p0(i64 8, ptr %16) #7
  call void @llvm.lifetime.end.p0(i64 512, ptr %15) #7
  call void @llvm.lifetime.end.p0(i64 8, ptr %14) #7
  call void @llvm.lifetime.end.p0(i64 512, ptr %13) #7
  call void @llvm.lifetime.end.p0(i64 8, ptr %12) #7
  call void @llvm.lifetime.end.p0(i64 512, ptr %11) #7
  call void @llvm.lifetime.end.p0(i64 8, ptr %10) #7
  call void @llvm.lifetime.end.p0(i64 16, ptr %9) #7
  call void @llvm.lifetime.end.p0(i64 8, ptr %8) #7
  call void @llvm.lifetime.end.p0(i64 8, ptr %7) #7
  call void @llvm.lifetime.end.p0(i64 6, ptr %6) #7
  call void @llvm.lifetime.end.p0(i64 4, ptr %5) #7
  call void @llvm.lifetime.end.p0(i64 8, ptr %4) #7
  call void @llvm.lifetime.end.p0(i64 512, ptr %3) #7
  call void @llvm.lifetime.end.p0(i64 8, ptr %2) #7
  call void @llvm.lifetime.end.p0(i64 4, ptr %1) #7
  ret i32 %151
}