; Function Attrs: nounwind uwtable
define internal range(i32 0, 2) i32 @test_hpke_noncereuse() #1 {
  %1 = alloca ptr, align 8
  %2 = alloca [512 x i8], align 16
  %3 = alloca i64, align 8
  %4 = alloca [16 x i8], align 16
  %5 = alloca [512 x i8], align 16
  %6 = alloca i64, align 8
  %7 = alloca [512 x i8], align 16
  %8 = alloca i64, align 8
  %9 = alloca [512 x i8], align 16
  %10 = alloca i64, align 8
  call void @llvm.lifetime.start.p0(i64 8, ptr nonnull %1) #7
  store ptr null, ptr %1, align 8, !tbaa !6
  call void @llvm.lifetime.start.p0(i64 512, ptr nonnull %2) #7
  call void @llvm.lifetime.start.p0(i64 8, ptr nonnull %3) #7
  store i64 512, ptr %3, align 8, !tbaa !11
  call void @llvm.lifetime.start.p0(i64 16, ptr nonnull %4) #7
  call void @llvm.memcpy.p0.p0.i64(ptr noundef nonnull align 16 dereferenceable(16) %4, ptr noundef nonnull align 16 dereferenceable(16) @__const.test_hpke_noncereuse.plain, i64 16, i1 false)
  call void @llvm.lifetime.start.p0(i64 512, ptr nonnull %5) #7
  call void @llvm.lifetime.start.p0(i64 8, ptr nonnull %6) #7
  store i64 512, ptr %6, align 8, !tbaa !11
  call void @llvm.lifetime.start.p0(i64 512, ptr nonnull %7) #7
  call void @llvm.lifetime.start.p0(i64 8, ptr nonnull %8) #7
  store i64 512, ptr %8, align 8, !tbaa !11
  call void @llvm.lifetime.start.p0(i64 512, ptr nonnull %9) #7
  call void @llvm.lifetime.start.p0(i64 8, ptr nonnull %10) #7
  store i64 512, ptr %10, align 8, !tbaa !11
  %11 = load ptr, ptr @testctx, align 8, !tbaa !13
  %12 = call i32 @OSSL_HPKE_keygen(i48 4295032864, ptr noundef nonnull %2, ptr noundef nonnull %3, ptr noundef nonnull %1, ptr noundef null, i64 noundef 0, ptr noundef %11, ptr noundef null) #7
  %13 = icmp ne i32 %12, 0
  %14 = zext i1 %13 to i32
  %15 = call i32 @test_true(ptr noundef nonnull @.str.31, i32 noundef 1897, ptr noundef nonnull @.str.69, i32 noundef %14) #7
  %.not = icmp eq i32 %15, 0
  br i1 %.not, label %79, label %16

16:                                               ; preds = %0
  %17 = load ptr, ptr @testctx, align 8, !tbaa !13
  %18 = call ptr @OSSL_HPKE_CTX_new(i32 noundef 0, i48 4295032864, i32 noundef 0, ptr noundef %17, ptr noundef null) #7
  %19 = call i32 @test_ptr(ptr noundef nonnull @.str.31, i32 noundef 1901, ptr noundef nonnull @.str.70, ptr noundef %18) #7
  %.not28 = icmp eq i32 %19, 0
  br i1 %.not28, label %79, label %20

20:                                               ; preds = %16
  %21 = call i32 @OSSL_HPKE_CTX_set_seq(ptr noundef %18, i64 noundef 195894762) #7
  %22 = icmp ne i32 %21, 0
  %23 = zext i1 %22 to i32
  %24 = call i32 @test_false(ptr noundef nonnull @.str.31, i32 noundef 1904, ptr noundef nonnull @.str.240, i32 noundef %23) #7
  %.not29 = icmp eq i32 %24, 0
  br i1 %.not29, label %79, label %25

25:                                               ; preds = %20
  %26 = load i64, ptr %3, align 8, !tbaa !11
  %27 = call i32 @OSSL_HPKE_encap(ptr noundef %18, ptr noundef nonnull %5, ptr noundef nonnull %6, ptr noundef nonnull %2, i64 noundef %26, ptr noundef null, i64 noundef 0) #7
  %28 = icmp ne i32 %27, 0
  %29 = zext i1 %28 to i32
  %30 = call i32 @test_true(ptr noundef nonnull @.str.31, i32 noundef 1906, ptr noundef nonnull @.str.73, i32 noundef %29) #7
  %.not30 = icmp eq i32 %30, 0
  br i1 %.not30, label %79, label %31

31:                                               ; preds = %25
  %32 = call i32 @OSSL_HPKE_CTX_set_seq(ptr noundef %18, i64 noundef 195894763) #7
  %33 = icmp ne i32 %32, 0
  %34 = zext i1 %33 to i32
  %35 = call i32 @test_false(ptr noundef nonnull @.str.31, i32 noundef 1909, ptr noundef nonnull @.str.241, i32 noundef %34) #7
  %.not31 = icmp eq i32 %35, 0
  br i1 %.not31, label %79, label %36

36:                                               ; preds = %31
  %37 = call i32 @OSSL_HPKE_seal(ptr noundef %18, ptr noundef nonnull %7, ptr noundef nonnull %8, ptr noundef null, i64 noundef 0, ptr noundef nonnull %4, i64 noundef 16) #7
  %38 = icmp ne i32 %37, 0
  %39 = zext i1 %38 to i32
  %40 = call i32 @test_true(ptr noundef nonnull @.str.31, i32 noundef 1912, ptr noundef nonnull @.str.74, i32 noundef %39) #7
  %.not32 = icmp eq i32 %40, 0
  br i1 %.not32, label %79, label %41

41:                                               ; preds = %36
  %42 = load ptr, ptr @testctx, align 8, !tbaa !13
  %43 = call ptr @OSSL_HPKE_CTX_new(i32 noundef 0, i48 4295032864, i32 noundef 1, ptr noundef %42, ptr noundef null) #7
  %44 = call i32 @test_ptr(ptr noundef nonnull @.str.31, i32 noundef 1918, ptr noundef nonnull @.str.78, ptr noundef %43) #7
  %.not33 = icmp eq i32 %44, 0
  br i1 %.not33, label %79, label %45

45:                                               ; preds = %41
  %46 = call i32 @OSSL_HPKE_CTX_set_seq(ptr noundef %43, i64 noundef 195894762) #7
  %47 = icmp ne i32 %46, 0
  %48 = zext i1 %47 to i32
  %49 = call i32 @test_true(ptr noundef nonnull @.str.31, i32 noundef 1921, ptr noundef nonnull @.str.242, i32 noundef %48) #7
  %.not34 = icmp eq i32 %49, 0
  br i1 %.not34, label %79, label %50

50:                                               ; preds = %45
  %51 = load i64, ptr %6, align 8, !tbaa !11
  %52 = load ptr, ptr %1, align 8, !tbaa !6
  %53 = call i32 @OSSL_HPKE_decap(ptr noundef %43, ptr noundef nonnull %5, i64 noundef %51, ptr noundef %52, ptr noundef null, i64 noundef 0) #7
  %54 = icmp ne i32 %53, 0
  %55 = zext i1 %54 to i32
  %56 = call i32 @test_true(ptr noundef nonnull @.str.31, i32 noundef 1923, ptr noundef nonnull @.str.79, i32 noundef %55) #7
  %.not35 = icmp eq i32 %56, 0
  br i1 %.not35, label %79, label %57

57:                                               ; preds = %50
  %58 = call i32 @OSSL_HPKE_CTX_set_seq(ptr noundef %43, i64 noundef 195894762) #7
  %59 = icmp ne i32 %58, 0
  %60 = zext i1 %59 to i32
  %61 = call i32 @test_true(ptr noundef nonnull @.str.31, i32 noundef 1926, ptr noundef nonnull @.str.242, i32 noundef %60) #7
  %.not36 = icmp eq i32 %61, 0
  br i1 %.not36, label %79, label %62

62:                                               ; preds = %57
  %63 = load i64, ptr %8, align 8, !tbaa !11
  %64 = call i32 @OSSL_HPKE_open(ptr noundef %43, ptr noundef nonnull %9, ptr noundef nonnull %10, ptr noundef null, i64 noundef 0, ptr noundef nonnull %7, i64 noundef %63) #7
  %65 = icmp ne i32 %64, 0
  %66 = zext i1 %65 to i32
  %67 = call i32 @test_false(ptr noundef nonnull @.str.31, i32 noundef 1930, ptr noundef nonnull @.str.80, i32 noundef %66) #7
  %.not37 = icmp eq i32 %67, 0
  br i1 %.not37, label %79, label %68

68:                                               ; preds = %62
  %69 = call i32 @OSSL_HPKE_CTX_set_seq(ptr noundef %43, i64 noundef 0) #7
  %70 = icmp ne i32 %69, 0
  %71 = zext i1 %70 to i32
  %72 = call i32 @test_true(ptr noundef nonnull @.str.31, i32 noundef 1933, ptr noundef nonnull @.str.234, i32 noundef %71) #7
  %.not38 = icmp eq i32 %72, 0
  br i1 %.not38, label %79, label %73

73:                                               ; preds = %68
  %74 = load i64, ptr %8, align 8, !tbaa !11
  %75 = call i32 @OSSL_HPKE_open(ptr noundef %43, ptr noundef nonnull %9, ptr noundef nonnull %10, ptr noundef null, i64 noundef 0, ptr noundef nonnull %7, i64 noundef %74) #7
  %76 = icmp ne i32 %75, 0
  %77 = zext i1 %76 to i32
  %78 = call i32 @test_true(ptr noundef nonnull @.str.31, i32 noundef 1936, ptr noundef nonnull @.str.80, i32 noundef %77) #7
  %.not39 = icmp ne i32 %78, 0
  %spec.select = zext i1 %.not39 to i32
  br label %79

79:                                               ; preds = %73, %68, %62, %57, %50, %45, %41, %36, %31, %25, %20, %16, %0
  %.027 = phi ptr [ %43, %68 ], [ %43, %62 ], [ %43, %57 ], [ %43, %50 ], [ %43, %45 ], [ %43, %41 ], [ null, %36 ], [ null, %31 ], [ null, %25 ], [ null, %20 ], [ null, %16 ], [ null, %0 ], [ %43, %73 ]
  %.026 = phi ptr [ %18, %68 ], [ %18, %62 ], [ %18, %57 ], [ %18, %50 ], [ %18, %45 ], [ %18, %41 ], [ %18, %36 ], [ %18, %31 ], [ %18, %25 ], [ %18, %20 ], [ %18, %16 ], [ null, %0 ], [ %18, %73 ]
  %.0 = phi i32 [ 0, %68 ], [ 0, %62 ], [ 0, %57 ], [ 0, %50 ], [ 0, %45 ], [ 0, %41 ], [ 0, %36 ], [ 0, %31 ], [ 0, %25 ], [ 0, %20 ], [ 0, %16 ], [ 0, %0 ], [ %spec.select, %73 ]
  %80 = load ptr, ptr %1, align 8, !tbaa !6
  call void @EVP_PKEY_free(ptr noundef %80) #7
  call void @OSSL_HPKE_CTX_free(ptr noundef %.026) #7
  call void @OSSL_HPKE_CTX_free(ptr noundef %.027) #7
  call void @llvm.lifetime.end.p0(i64 8, ptr nonnull %10) #7
  call void @llvm.lifetime.end.p0(i64 512, ptr nonnull %9) #7
  call void @llvm.lifetime.end.p0(i64 8, ptr nonnull %8) #7
  call void @llvm.lifetime.end.p0(i64 512, ptr nonnull %7) #7
  call void @llvm.lifetime.end.p0(i64 8, ptr nonnull %6) #7
  call void @llvm.lifetime.end.p0(i64 512, ptr nonnull %5) #7
  call void @llvm.lifetime.end.p0(i64 16, ptr nonnull %4) #7
  call void @llvm.lifetime.end.p0(i64 8, ptr nonnull %3) #7
  call void @llvm.lifetime.end.p0(i64 512, ptr nonnull %2) #7
  call void @llvm.lifetime.end.p0(i64 8, ptr nonnull %1) #7
  ret i32 %.0
}